******************************* Segment: Default *******************************
[basic]
0801: 0b 08     -         
0803: 0a 00     -         
0805: 9e        -         
0806: 34 39 34 39                                      -         
080a: 00        -         
080b: 00 00     - upstartEnd:

[main]
1000: 00 00 00 00 00 00 00 00                          - spriteAnimationFrameCount:.fill 8, $00
1008: 00 00 00 00 00 00 00 00                          - spriteAnimationCurrentFrame:.fill 8, $00
1010: 00 00 00 00 00 00 00 00                          - spriteAnimationCurrentDataPtr:.fill 8, $00
1018: 00 00 00 00 00 00 00 00                          - spriteDataPtr:.fill 8, $00
1020: 01 02 04 08 10 20 40 80                          - spriteNumberMask:.byte %00000001, %00000010, %00000100, %00001000, %00010000, %00100000, %01000000, %10000000
1028: 00 00 00 00 00 00 00 00 00 00 00 00 00 00 00 00 00 00 00 00 00 00 00 00 00 00 00 00 00 00 00 00  - timer_max:.fill maxTimers, $00
1048: 00 00 00 00 00 00 00 00 00 00 00 00 00 00 00 00 00 00 00 00 00 00 00 00 00 00 00 00 00 00 00 00 
1068: 00 00 00 00 00 00 00 00 00 00 00 00 00 00 00 00 00 00 00 00 00 00 00 00 00 00 00 00 00 00 00 00 
1088: 00 00 00 00 00 00 00 00 00 00 00 00 00 00 00 00 00 00 00 00 00 00 00 00 00 00 00 00 00 00 00 00 
10a8: 00 00 00 00 00 00 00 00 00 00 00 00 00 00 00 00 00 00 00 00 00 00 00 00 00 00 00 00 00 00 00 00 
10c8: 00 00 00 00 00 00 00 00 00 00 00 00 00 00 00 00 00 00 00 00 00 00 00 00 00 00 00 00 00 00 00 00 
10e8: 00 00 00 00 00 00 00 00 00 00 00 00 00 00 00 00 00 00 00 00 00 00 00 00 00 00 00 00 00 00 00 00 
1108: 00 00 00 00 00 00 00 00 00 00 00 00 00 00 00 00                                                 
1118: 00 00 00 00 00 00 00 00 00 00 00 00 00 00 00 00 00 00 00 00 00 00 00 00 00 00 00 00 00 00 00 00  - timer:  .fill maxTimers, $00
1138: 00 00 00 00 00 00 00 00 00 00 00 00 00 00 00 00 00 00 00 00 00 00 00 00 00 00 00 00 00 00 00 00 
1158: 00 00 00 00 00 00 00 00 00 00 00 00 00 00 00 00 00 00 00 00 00 00 00 00 00 00 00 00 00 00 00 00 
1178: 00 00 00 00 00 00 00 00 00 00 00 00 00 00 00 00 00 00 00 00 00 00 00 00 00 00 00 00 00 00 00 00 
1198: 00 00 00 00 00 00 00 00 00 00 00 00 00 00 00 00 00 00 00 00 00 00 00 00 00 00 00 00 00 00 00 00 
11b8: 00 00 00 00 00 00 00 00 00 00 00 00 00 00 00 00 00 00 00 00 00 00 00 00 00 00 00 00 00 00 00 00 
11d8: 00 00 00 00 00 00 00 00 00 00 00 00 00 00 00 00 00 00 00 00 00 00 00 00 00 00 00 00 00 00 00 00 
11f8: 00 00 00 00 00 00 00 00 00 00 00 00 00 00 00 00                                                 
1208: ff        - seedhi: .byte $FF
1209: ff        - seedlo: .byte $FF
120a: ad 08 12  - rand:   lda seedhi
120d: 4a        -         lsr
120e: 2e 09 12  -         rol seedlo            
1211: 90 02     -         bcc noeor             
1213: 49 b4     -         eor #$B4              
1215: 8d 08 12  - noeor:  sta seedhi            
1218: 4d 09 12  -         eor seedlo 
121b: 60        -         rts
121c: 00 04 28 04 50 04 78 04 a0 04                    - wScreenRAMRowStart:.word SCREENRAM,     SCREENRAM+40,  SCREENRAM+80,  SCREENRAM+120, SCREENRAM+160
1226: c8 04 f0 04 18 05 40 05 68 05                    -         .word SCREENRAM+200, SCREENRAM+240, SCREENRAM+280, SCREENRAM+320, SCREENRAM+360
1230: 90 05 b8 05 e0 05 08 06 30 06                    -         .word SCREENRAM+400, SCREENRAM+440, SCREENRAM+480, SCREENRAM+520, SCREENRAM+560
123a: 58 06 80 06 a8 06 d0 06 f8 06                    -         .word SCREENRAM+600, SCREENRAM+640, SCREENRAM+680, SCREENRAM+720, SCREENRAM+760
1244: 20 07 48 07 70 07 98 07 c0 07                    -         .word SCREENRAM+800, SCREENRAM+840, SCREENRAM+880, SCREENRAM+920, SCREENRAM+960
124e: 00 d8 28 d8 50 d8 78 d8 a0 d8                    - wColorRAMRowStart:.word COLORRAM,     COLORRAM+40,  COLORRAM+80,  COLORRAM+120, COLORRAM+160
1258: c8 d8 f0 d8 18 d9 40 d9 68 d9                    -         .word COLORRAM+200, COLORRAM+240, COLORRAM+280, COLORRAM+320, COLORRAM+360
1262: 90 d9 b8 d9 e0 d9 08 da 30 da                    -         .word COLORRAM+400, COLORRAM+440, COLORRAM+480, COLORRAM+520, COLORRAM+560
126c: 58 da 80 da a8 da d0 da f8 da                    -         .word COLORRAM+600, COLORRAM+640, COLORRAM+680, COLORRAM+720, COLORRAM+760
1276: 20 db 48 db 70 db 98 db c0 db                    -         .word COLORRAM+800, COLORRAM+840, COLORRAM+880, COLORRAM+920, COLORRAM+960
1280: a5 03     - libScreen_SetCharacter:lda ZeroPage2
1282: 0a        -         asl                             // multiply by 2 as RAM addr stored in words
1283: a8        -         tay
1284: b9 1c 12  -         lda wScreenRAMRowStart,y        // low byte of screen RAM address    
1287: 85 0a     -         sta ZeroPage9
1289: b9 4e 12  -         lda wColorRAMRowStart,y         // low byte of color RAM address
128c: 85 0c     -         sta ZeroPage11 
128e: b9 1d 12  -         lda wScreenRAMRowStart+1,y      // high byte of screen RAM address    
1291: 85 0b     -         sta ZeroPage10
1293: b9 4f 12  -         lda wColorRAMRowStart+1,y       // high byte of color RAM address
1296: 85 0d     -         sta ZeroPage12
1298: a4 02     -         ldy ZeroPage1                   // x pos
129a: a5 04     -         lda ZeroPage3                   // the character to display
129c: 91 0a     -         sta (ZeroPage9),y               // store char at the screen RAM addr
129e: a9 01     -         lda #WHITE                      // color of missile
12a0: 91 0c     -         sta (ZeroPage11),y    
12a2: 60        -         rts
12a3: 00 00 00 00 00 00 00 00                          - missile_enable:.fill max_missiles, $00
12ab: 00 00 00 00 00 00 00 00                          - missile_char_x:.fill max_missiles, $00
12b3: 00 00 00 00 00 00 00 00                          - missile_char_y:.fill max_missiles, $00
12bb: 00 00 00 00 00 00 00 00                          - missile_dir:.fill max_missiles, $00
12c3: 78 78 78 78 78 78 78 78                          - missile_char:.fill max_missiles, missile_first_frame
12cb: 78 78 78 79 78 7a 78 7b 78 7c 78 7d 78 7e 78 7f  - missile_frames:.fill max_missiles, [missile_first_frame,missile_first_frame+i]
12db: a2 00     - render_missiles:ldx #$00
12dd: bd a3 12  - loop:   lda missile_enable,x
12e0: f0 1e     -         beq next
12e2: bd ab 12  -         lda missile_char_x,x
12e5: 85 02     -         sta ZeroPage1
12e7: bd b3 12  -         lda missile_char_y,x
12ea: 85 03     -         sta ZeroPage2
12ec: bd c3 12  -         lda missile_char,x
12ef: 85 04     -         sta ZeroPage3
12f1: a5 02     -         lda bXPos
12f3: 85 02     -         sta ZeroPage1
12f5: a5 03     -         lda bYPos
12f7: 85 03     -         sta ZeroPage2
12f9: a5 04     -         lda bChar
12fb: 85 04     -         sta ZeroPage3
12fd: 20 80 12  -         jsr libScreen_SetCharacter
1300: e8        - next:   inx
1301: e0 08     -         cpx #max_missiles
1303: 90 d8     -         bcc loop
1305: 60        - end:    rts
1306: a2 00     - erase_missiles:ldx #$00
1308: bd a3 12  - loop:   lda missile_enable,x
130b: f0 1d     -         beq next
130d: bd ab 12  -         lda missile_char_x,x
1310: 85 02     -         sta ZeroPage1
1312: bd b3 12  -         lda missile_char_y,x
1315: 85 03     -         sta ZeroPage2
1317: a9 20     -         lda #$20
1319: 85 04     -         sta ZeroPage3
131b: a5 02     -         lda bXPos
131d: 85 02     -         sta ZeroPage1
131f: a5 03     -         lda bYPos
1321: 85 03     -         sta ZeroPage2
1323: a5 04     -         lda bChar
1325: 85 04     -         sta ZeroPage3
1327: 20 80 12  -         jsr libScreen_SetCharacter
132a: e8        - next:   inx
132b: e0 08     -         cpx #max_missiles
132d: 90 d9     -         bcc loop
132f: 60        - end:    rts
1330: 00        - player_x_hi:.byte $00 //$00
1331: ff        - player_x_lo:.byte $ff //$af
1332: cd        - player_y:.byte $cd
1333: 00        - player_firing:.byte $00 // 0=no, !0=yes
1334: ad 30 13  - bound_player:lda player_x_hi
1337: d0 0f     -         bne testforhi
1339: ad 31 13  -         lda player_x_lo
133c: c9 11     -         cmp #$11
133e: b0 14     -         bcs end
1340: a9 11     -         lda #$11
1342: 8d 31 13  -         sta player_x_lo
1345: 4c 54 13  -         jmp end
1348: ad 31 13  - testforhi:lda player_x_lo
134b: c9 47     -         cmp #$47
134d: 90 05     -         bcc end
134f: a9 47     -         lda #$47
1351: 8d 31 13  -         sta player_x_lo
1354: 60        - end:    rts
1355: a9 00     - main:   lda #bColor
1357: 8d 21 d0  -         sta $d021 
135a: a9 00     -         lda #bColor
135c: 8d 20 d0  -         sta $d020
135f: ad 18 d0  -         lda $D018
1362: 29 f0     -         and #$F0        // don't disturb the upper 4 bits
1364: 09 0e     -         ora #bBlock
1366: 8d 18 d0  -         sta $D018
1369: a9 0a     -         lda #nColor0
136b: 8d 25 d0  -         sta $d025
136e: a9 03     -         lda #nColor1
1370: 8d 26 d0  -         sta $d026
1373: a0 00     -         ldy #nSpriteNumber
1375: ad 15 d0  -         lda SP0ENABLE
1378: 19 20 10  -         ora spriteNumberMask,y
137b: 8d 15 d0  -         sta SP0ENABLE
137e: a0 00     -         ldy #nSpriteNumber
1380: a9 80     -         lda #bBlock
1382: 99 18 10  -         sta spriteDataPtr,y
1385: 99 f8 07  -         sta SP0DATA,y
1388: a0 00     -         ldy #nSpriteNumber
138a: ad 1c d0  -         lda $d01c
138d: 19 20 10  -         ora spriteNumberMask,y
1390: 8d 1c d0  -         sta $d01c
1393: a0 00     -         ldy #nSpriteNumber
1395: a9 0f     -         lda #nColor
1397: 99 27 d0  -         sta SP0COLOR,y
139a: a0 00     -         ldy #nSpriteNumber
139c: a9 01     -         lda #nFrames
139e: 99 00 10  -         sta spriteAnimationFrameCount,y
13a1: a9 00     -         lda #$00
13a3: 99 08 10  -         sta spriteAnimationCurrentFrame,y
13a6: b9 18 10  -         lda spriteDataPtr,y
13a9: 99 10 10  -         sta spriteAnimationCurrentDataPtr,y
13ac: a0 00     -         ldy #nTimer
13ae: a9 03     -         lda #nMax
13b0: 99 28 10  -         sta timer_max,y
13b3: a9 00     -         lda #$00
13b5: 99 18 11  -         sta timer,y
13b8: a0 01     -         ldy #nTimer
13ba: a9 78     -         lda #nMax
13bc: 99 28 10  -         sta timer_max,y
13bf: a9 00     -         lda #$00
13c1: 99 18 11  -         sta timer,y
13c4: a2 00     -         ldx #$00
13c6: bd 00 22  -         lda screen_data_1,x
13c9: 9d 00 04  -         sta $0400,x
13cc: bd 00 23  -         lda screen_data_2,x
13cf: 9d 00 05  -         sta $0500,x
13d2: bd 00 24  -         lda screen_data_3,x
13d5: 9d 00 06  -         sta $0600,x    
13d8: e0 ff     -         cpx #$ff
13da: f0 04     -         beq final
13dc: e8        -         inx
13dd: 4c c6 13  -         jmp !loop-    
13e0: a2 e7     - final:  ldx #$e7
13e2: bd 00 25  -         lda screen_data_4,x
13e5: 9d 00 07  -         sta $0700,x    
13e8: e0 00     -         cpx #$00    
13ea: f0 04     -         beq end
13ec: ca        -         dex
13ed: 4c e2 13  -         jmp !loop-
13f0: a2 00     - end:    ldx #$00
13f2: bd e8 25  -         lda color_data_1,x
13f5: 9d 00 d8  -         sta color_ram,x
13f8: bd e8 26  -         lda color_data_2,x
13fb: 9d 00 d9  -         sta color_ram+256,x
13fe: bd e8 27  -         lda color_data_3,x
1401: 9d 00 da  -         sta color_ram+512,x    
1404: e0 ff     -         cpx #$ff
1406: f0 04     -         beq final
1408: e8        -         inx
1409: 4c f2 13  -         jmp !loop-    
140c: a2 e7     - final:  ldx #$e7
140e: bd e8 28  -         lda color_data_4,x
1411: 9d 00 db  -         sta color_ram+768,x    
1414: e0 00     -         cpx #$00    
1416: f0 04     -         beq end
1418: ca        -         dex
1419: 4c 0e 14  -         jmp !loop-
141c: a0 02     - end:    ldy #nTimer
141e: a9 58     -         lda #nMax
1420: 99 28 10  -         sta timer_max,y
1423: a9 00     -         lda #$00
1425: 99 18 11  -         sta timer,y
1428: 78        -         sei
1429: ad 12 d0  - loop,wait_loop:lda $D012
142c: c9 fa     -         cmp #nScanline
142e: d0 f9     -         bne wait_loop
1430: a2 ff     -         ldx #$FF
1432: bd 00 04  - loop:   lda $0400,x             
1435: c9 2e     -         cmp #$2E
1437: d0 27     -         bne bank2
1439: 20 0a 12  -         jsr rand
143c: c9 05     -         cmp #$05
143e: 90 17     -         bcc white
1440: c9 0a     -         cmp #$0A
1442: 90 0e     -         bcc gray
1444: c9 0f     -         cmp #$0F
1446: 90 05     -         bcc blue
1448: a9 ff     -         lda #$FF
144a: 4c 59 14  -         jmp end
144d: a9 06     - blue:   lda #color_blue
144f: 4c 59 14  -         jmp end
1452: a9 0c     - gray:   lda #color_gray_2
1454: 4c 59 14  -         jmp end
1457: a9 01     - white:  lda #color_white
1459: c9 ff     - end:    cmp #$FF
145b: f0 03     -         beq bank2
145d: 9d 00 d8  -         sta $D800,x
1460: bd 00 05  - bank2:  lda $0500,x
1463: c9 2e     -         cmp #$2E
1465: d0 27     -         bne bank3
1467: 20 0a 12  -         jsr rand
146a: c9 05     -         cmp #$05
146c: 90 17     -         bcc white
146e: c9 0a     -         cmp #$0A
1470: 90 0e     -         bcc gray
1472: c9 0f     -         cmp #$0F
1474: 90 05     -         bcc blue
1476: a9 ff     -         lda #$FF
1478: 4c 87 14  -         jmp end
147b: a9 06     - blue:   lda #color_blue
147d: 4c 87 14  -         jmp end
1480: a9 0c     - gray:   lda #color_gray_2
1482: 4c 87 14  -         jmp end
1485: a9 01     - white:  lda #color_white
1487: c9 ff     - end:    cmp #$FF
1489: f0 03     -         beq bank3
148b: 9d 00 d9  -         sta $D900,x
148e: bd 00 06  - bank3:  lda $0600,x
1491: c9 2e     -         cmp #$2E
1493: d0 27     -         bne bank4
1495: 20 0a 12  -         jsr rand
1498: c9 05     -         cmp #$05
149a: 90 17     -         bcc white
149c: c9 0a     -         cmp #$0A
149e: 90 0e     -         bcc gray
14a0: c9 0f     -         cmp #$0F
14a2: 90 05     -         bcc blue
14a4: a9 ff     -         lda #$FF
14a6: 4c b5 14  -         jmp end
14a9: a9 06     - blue:   lda #color_blue
14ab: 4c b5 14  -         jmp end
14ae: a9 0c     - gray:   lda #color_gray_2
14b0: 4c b5 14  -         jmp end
14b3: a9 01     - white:  lda #color_white
14b5: c9 ff     - end:    cmp #$FF
14b7: f0 03     -         beq bank4
14b9: 9d 00 da  -         sta $DA00,x        
14bc: e0 e7     - bank4:  cpx #$E7
14be: b0 2e     -         bcs next
14c0: bd 00 07  -         lda $0700,x
14c3: c9 2e     -         cmp #$2E
14c5: d0 27     -         bne next
14c7: 20 0a 12  -         jsr rand
14ca: c9 05     -         cmp #$05
14cc: 90 17     -         bcc white
14ce: c9 0a     -         cmp #$0A
14d0: 90 0e     -         bcc gray
14d2: c9 0f     -         cmp #$0F
14d4: 90 05     -         bcc blue
14d6: a9 ff     -         lda #$FF
14d8: 4c e7 14  -         jmp end
14db: a9 06     - blue:   lda #color_blue
14dd: 4c e7 14  -         jmp end
14e0: a9 0c     - gray:   lda #color_gray_2
14e2: 4c e7 14  -         jmp end
14e5: a9 01     - white:  lda #color_white
14e7: c9 ff     - end:    cmp #$FF
14e9: f0 03     -         beq next
14eb: 9d 00 db  -         sta $DB00,x
14ee: ca        - next:   dex
14ef: f0 03     -         beq end
14f1: 4c 32 14  -         jmp loop
14f4: a0 00     - end:    ldy #nSpriteNumber
14f6: ad 30 13  -         lda bHiByteX                // check the hi byte of the X position
14f9: d0 0f     -         bne setXMSB                 // if not zero, set the XMSB bit    
14fb: b9 20 10  -         lda spriteNumberMask,y      // otherwise load the XMSB bits 
14fe: 4d 10 d0  -         eor $d010                   // get the inverse of the mask
1501: 2d 10 d0  -         and $d010                   // and with the XMSB bits to turn it off
1504: 8d 10 d0  -         sta $d010                   // store back to XMSB register
1507: 4c 13 15  -         jmp setX                    // go set the X position of the sprite
150a: ad 10 d0  - setXMSB:lda $d010                   // load XMSB register
150d: 19 20 10  -         ora spriteNumberMask,y      // turn on specific sprite XMSB bit
1510: 8d 10 d0  -         sta $d010                   // store back to XMSB register
1513: ad 31 13  - setX:   lda bLoByteX                // load A with sprite X low byte
1516: 99 00 d0  -         sta $d000,y                 // A should be preloaded with true X
1519: ad 32 13  - setY:   lda bY
151c: 8d 01 d0  -         sta $d001
151f: a2 00     -         ldx #nTimer
1521: bd 18 11  -         lda timer,x
1524: dd 28 10  -         cmp timer_max,x
1527: b0 03     -         bcs end
1529: fe 18 11  -         inc timer,x
152c: a2 00     - end:    ldx #$00
152e: a0 00     -         ldy #nTimer
1530: b9 18 11  -         lda timer,y
1533: d9 28 10  -         cmp timer_max,y             // check carry flag BCS for timer has elapsed, 
1536: 90 2b     -         bcc check_can_fire
1538: a2 00     -         ldx #nSpriteNumber
153a: bd 08 10  -         lda spriteAnimationCurrentFrame,x
153d: dd 00 10  -         cmp spriteAnimationFrameCount,x
1540: 90 0e     -         bcc next
1542: bd 18 10  -         lda spriteDataPtr,x
1545: 9d 10 10  -         sta spriteAnimationCurrentDataPtr,x
1548: a9 00     -         lda #$00
154a: 9d 08 10  -         sta spriteAnimationCurrentFrame,x
154d: 4c 56 15  -         jmp end
1550: fe 08 10  - next:   inc spriteAnimationCurrentFrame,x    
1553: fe 10 10  -         inc spriteAnimationCurrentDataPtr,x
1556: bd 10 10  - end:    lda spriteAnimationCurrentDataPtr,x
1559: 9d f8 07  -         sta SP0DATA,x
155c: a0 00     -         ldy #nTimer
155e: a9 00     -         lda #$00
1560: 99 18 11  -         sta timer,y
1563: a2 00     - check_can_fire:ldx #$00
1565: a0 01     -         ldy #nTimer
1567: b9 18 11  -         lda timer,y
156a: d9 28 10  -         cmp timer_max,y             // check carry flag BCS for timer has elapsed, 
156d: 90 0c     -         bcc end
156f: a9 00     -         lda #$00
1571: 8d 33 13  -         sta player_firing
1574: a0 01     -         ldy #nTimer
1576: a9 00     -         lda #$00
1578: 99 18 11  -         sta timer,y
157b: ad 00 dc  - end,check_left:lda CIAPRA      // Load joystick 2 state to A
157e: 29 04     -         and #bPortMask  // Mask out direction/fire required
1580: d0 1a     -         bne check_right
1582: 38        -         sec
1583: ad 31 13  -         lda player_x_lo
1586: e9 03     -         sbc #nPixels
1588: 8d 31 13  -         sta player_x_lo    
158b: ad 30 13  -         lda player_x_hi
158e: e9 00     -         sbc #$00
1590: 8d 30 13  -         sta player_x_hi
1593: ae 31 13  -         ldx player_x_lo    
1596: 20 34 13  -         jsr bound_player
1599: 4c 3b 16  -         jmp end
159c: ad 00 dc  - check_right:lda CIAPRA      // Load joystick 2 state to A
159f: 29 08     -         and #bPortMask  // Mask out direction/fire required
15a1: d0 15     -         bne check_fire
15a3: 18        -         clc
15a4: ad 31 13  -         lda player_x_lo
15a7: 69 03     -         adc #nPixels
15a9: 8d 31 13  -         sta player_x_lo
15ac: aa        -         tax                     // keep the low byte in X for bounds checking
15ad: ad 30 13  -         lda player_x_hi
15b0: 69 00     -         adc #$00
15b2: 8d 30 13  -         sta player_x_hi    
15b5: 20 34 13  -         jsr bound_player
15b8: ad 00 dc  - check_fire:lda CIAPRA      // Load joystick 2 state to A
15bb: 29 10     -         and #bPortMask  // Mask out direction/fire required
15bd: d0 7c     -         bne end
15bf: a9 01     -         lda #$01
15c1: 8d 33 13  -         sta player_firing 
15c4: a0 01     -         ldy #nTimer
15c6: a9 00     -         lda #$00
15c8: 99 18 11  -         sta timer,y
15cb: 38        -         sec                 // subtract 24-12 (offset half width of sprite)
15cc: ad 31 13  -         lda player_x_lo
15cf: e9 0c     -         sbc #$0C
15d1: 85 02     -         sta ZeroPage1
15d3: 85 04     -         sta ZeroPage3       // saving for calculating the offset    
15d5: ad 30 13  -         lda player_x_hi
15d8: e9 00     -         sbc #$00
15da: 85 03     -         sta ZeroPage2
15dc: 46 03     - divide: lsr ZeroPage2       // divide by 8
15de: 66 02     -         ror ZeroPage1
15e0: 46 03     -         lsr ZeroPage2
15e2: 66 02     -         ror ZeroPage1
15e4: 46 03     -         lsr ZeroPage2
15e6: 66 02     -         ror ZeroPage1
15e8: a5 02     - offset: lda ZeroPage1       // multiply char X by 8
15ea: 85 05     -         sta ZeroPage4
15ec: 06 05     -         asl ZeroPage4
15ee: 26 05     -         rol ZeroPage4
15f0: 26 05     -         rol ZeroPage4
15f2: a5 04     -         lda ZeroPage3       // subtract char X * 8 from adjusted pixel X
15f4: 38        -         sec
15f5: e5 05     -         sbc ZeroPage4
15f7: a8        -         tay
15f8: a5 02     - done:   lda ZeroPage1       // A will have X char pos
15fa: 85 0f     -         sta ZeroPage14
15fc: 84 0e     -         sty ZeroPage13
15fe: 38        -         sec                 // subtract 50
15ff: ad 32 13  -         lda player_y
1602: e9 32     -         sbc #$32
1604: 85 02     -         sta ZeroPage1
1606: 46 02     -         lsr ZeroPage1       // divide by 8
1608: 46 02     -         lsr ZeroPage1
160a: 46 02     -         lsr ZeroPage1    
160c: a5 02     -         lda ZeroPage1       // A will have Y char pos
160e: 85 10     -         sta ZeroPage15    
1610: a2 00     -         ldx #$00
1612: bd a3 12  - loop:   lda missile_enable,x
1615: f0 08     -         beq create
1617: e0 08     -         cpx #max_missiles
1619: f0 18     -         beq setchar
161b: e8        -         inx
161c: 4c 12 16  -         jmp loop
161f: a9 01     - create: lda #$01
1621: 9d a3 12  -         sta missile_enable,x
1624: a5 0f     -         lda charX
1626: 9d ab 12  -         sta missile_char_x,x
1629: a5 10     -         lda charY
162b: 9d b3 12  -         sta missile_char_y,x
162e: a9 00     -         lda #dir
1630: 9d bb 12  -         sta missile_dir,x
1633: a0 0e     - setchar:ldy #offset
1635: b9 cb 12  -         lda missile_frames,y
1638: 9d c3 12  -         sta missile_char,x
163b: a2 00     - end:    ldx #$00
163d: a0 02     -         ldy #nTimer
163f: b9 18 11  -         lda timer,y
1642: d9 28 10  -         cmp timer_max,y             // check carry flag BCS for timer has elapsed, 
1645: 90 3e     -         bcc end
1647: a0 02     -         ldy #nTimer
1649: a9 00     -         lda #$00
164b: 99 18 11  -         sta timer,y
164e: 20 06 13  -         jsr erase_missiles 
1651: a2 00     -         ldx #$00
1653: bd a3 12  - loop:   lda missile_enable,x            // enabled?
1656: f0 25     -         beq next
1658: bd bb 12  -         lda missile_dir,x               // what direction is it moving?
165b: d0 06     -         bne move_down
165d: de b3 12  - move_up:dec missile_char_y,x
1660: 4c 66 16  -         jmp check                       
1663: fe b3 12  - move_down:inc missile_char_y,x
1666: bd b3 12  - check:  lda missile_char_y,x            // check for out of bounds
1669: c9 01     -         cmp #$01
166b: f0 07     -         beq remove
166d: c9 1a     -         cmp #$1A
166f: f0 03     -         beq remove
1671: 4c 85 16  -         jmp end
1674: 86 02     - remove: stx ZeroPage1
1676: a2 02     -         ldx #index
1678: a9 00     -         lda #$00
167a: 9d a3 12  -         sta missile_enable,x    
167d: e8        - next:   inx
167e: e0 08     -         cpx #max_missiles
1680: f0 03     -         beq end
1682: 4c 53 16  -         jmp loop
1685: 20 db 12  - end:    jsr render_missiles
1688: a2 02     -         ldx #nTimer
168a: bd 18 11  -         lda timer,x
168d: dd 28 10  -         cmp timer_max,x
1690: b0 03     -         bcs end
1692: fe 18 11  -         inc timer,x
1695: a2 01     - end:    ldx #nTimer
1697: bd 18 11  -         lda timer,x
169a: dd 28 10  -         cmp timer_max,x
169d: b0 03     -         bcs end
169f: fe 18 11  -         inc timer,x
16a2: 4c 29 14  - end:    jmp loop
16a5: 60        -         rts

[sprites]
2000: 00 00 00 00 00 00 00 00 00 00 28 00 00 28 00 00 28 00 00 28 00 00 aa 00 00 be 00 00 be 00 00 be  -         .import binary "..\resources\player_sprites.bin"
2020: 00 02 aa 80 02 aa 80 02 aa 80 0a aa a0 2a aa a8 2a 00 a8 00 00 00 00 00 00 00 00 00 00 00 00 00 
2040: 00 00 00 00 00 00 00 00 00 00 28 00 00 28 00 00 28 00 00 28 00 00 aa 00 00 be 00 00 be 00 00 be 
2060: 00 02 aa 80 02 aa 80 02 aa 80 0a aa a0 2a aa a8 2a 14 a8 00 14 00 00 00 00 00 00 00 00 00 00 00 

[screen]
2200: 20 20 20 20 20 20 20 20 20 20 20 20 20 20 20 20 20 20 20 20 20 20 20 20 20 20 20 20 20 20 20 20  -         .import binary "..\resources\screen.bin"
2220: 20 20 20 20 20 20 20 20 20 20 20 20 20 20 20 20 20 20 20 20 20 20 20 20 20 20 20 20 20 20 20 20 
2240: 20 20 20 20 20 20 20 20 20 20 20 20 20 20 20 20 20 20 20 2e 20 20 20 20 20 20 20 20 20 20 20 20 
2260: 20 20 20 20 20 20 20 20 20 20 20 20 20 20 20 20 20 20 20 20 20 20 20 20 20 20 20 20 20 20 20 20 
2280: 20 20 20 20 20 20 20 20 20 2e 20 20 20 20 20 20 20 20 20 20 20 20 20 20 20 20 20 2e 20 20 20 20 
22a0: 20 20 20 20 20 20 20 20 20 20 20 20 20 20 20 20 20 20 20 20 20 20 20 20 20 20 20 20 20 20 20 20 
22c0: 20 2e 20 20 20 20 20 20 20 20 20 20 20 20 20 20 20 20 20 20 20 20 20 20 20 20 20 20 20 20 20 20 
22e0: 20 20 20 20 20 20 20 20 20 20 20 20 20 20 20 20 20 20 20 20 20 20 20 20 2e 20 2e 20 20 20 20 20 
2300: 20 20 20 20 20 20 20 20 20 20 20 20 20 20 20 20 20 20 20 20 20 20 20 20 20 20 20 20 20 20 20 20 
2320: 20 20 20 20 20 20 20 20 20 20 20 20 20 20 20 20 20 20 2e 20 20 20 20 20 20 20 20 20 20 20 20 20 
2340: 20 20 20 20 20 20 20 2e 20 20 20 20 20 20 20 20 20 20 20 20 20 20 20 20 20 20 20 20 20 20 20 20 
2360: 20 20 20 29 20 20 20 20 20 20 20 20 20 20 20 20 20 20 20 20 20 20 20 20 20 20 20 20 20 20 20 20 
2380: 20 20 20 20 20 20 20 20 20 20 20 20 20 20 20 20 20 20 20 20 20 20 20 20 20 20 20 20 20 20 20 20 
23a0: 20 20 20 20 20 20 20 20 20 20 20 20 20 20 20 20 20 20 20 20 20 20 20 20 20 20 20 20 20 20 20 20 
23c0: 20 20 20 20 20 20 20 20 2e 20 20 20 20 20 20 20 20 20 20 20 20 20 20 20 20 20 20 20 20 20 20 20 
23e0: 20 20 20 20 2e 20 20 20 20 20 20 20 20 20 20 20 20 20 20 20 20 20 20 20 20 20 20 20 20 20 20 20 
2400: 20 20 20 20 20 20 20 20 20 20 20 20 20 20 20 20 20 20 20 20 20 20 20 20 20 20 20 20 20 20 20 20 
2420: 20 20 20 20 20 20 20 20 20 20 2e 20 20 20 20 20 20 20 20 20 20 20 20 20 20 20 20 20 20 20 20 20 
2440: 20 20 20 20 20 20 20 20 20 20 20 20 20 20 20 20 20 20 20 20 20 20 20 20 20 20 20 20 20 20 20 20 
2460: 20 20 20 20 20 20 20 20 20 20 20 20 20 20 20 20 20 20 20 20 20 20 20 20 20 20 20 20 20 20 20 20 
2480: 20 20 20 20 20 20 20 20 20 20 20 20 20 20 20 20 20 20 20 20 20 20 20 2e 20 20 20 20 20 20 20 20 
24a0: 20 20 20 20 20 20 20 20 20 20 20 20 20 20 20 20 2e 20 20 20 20 20 20 20 20 20 20 20 20 20 20 20 
24c0: 2e 20 20 20 20 20 20 20 20 20 20 20 20 20 20 20 20 20 20 20 20 20 20 2e 20 20 20 20 20 20 20 20 
24e0: 20 20 20 20 20 20 20 20 20 20 20 20 20 20 20 20 20 20 20 20 2e 20 20 20 20 20 20 20 20 20 20 20 
2500: 20 20 20 20 20 20 2e 20 20 20 20 20 20 20 20 20 20 20 20 20 20 20 20 20 20 20 20 20 20 20 20 20 
2520: 20 20 20 20 20 20 20 20 20 20 20 20 20 20 20 20 20 2e 20 20 20 20 20 20 20 20 20 20 20 20 20 20 
2540: 20 20 20 20 20 20 20 20 20 20 20 20 20 20 20 20 20 20 20 20 20 20 20 20 20 20 20 20 20 20 20 20 
2560: 20 20 20 20 20 20 20 20 20 20 20 20 20 20 20 20 20 64 79 62 62 62 62 79 79 79 79 62 62 62 62 62 
2580: 62 79 79 79 62 62 62 62 62 79 79 62 62 62 62 79 79 79 79 79 79 64 64 20 e0 e0 e0 e0 e0 e0 e0 e0 
25a0: e0 e0 e0 e0 e0 e0 e0 e0 e0 e0 e0 e0 e0 e0 e0 e0 e0 e0 e0 e0 e0 e0 e0 e0 e0 e0 e0 e0 e0 e0 e0 e0 
25c0: e0 e0 e0 e0 e0 e0 e0 e0 e0 e0 e0 e0 e0 e0 e0 e0 e0 e0 e0 e0 e0 e0 e0 e0 e0 e0 e0 e0 e0 e0 e0 e0 
25e0: e0 e0 e0 e0 e0 e0 e0 e0 00 00 00 00 00 00 00 00 00 00 00 00 00 00 00 00 00 00 00 00 00 00 00 00 
2600: 00 00 00 00 00 00 00 00 00 00 00 00 00 00 00 00 00 00 00 00 00 00 00 00 00 00 00 00 00 00 00 00 
2620: 00 00 00 00 00 00 00 00 00 00 00 00 00 00 00 00 00 00 00 00 00 00 00 00 00 00 00 01 00 00 00 00 
2640: 00 00 00 00 00 00 00 00 00 00 00 00 00 00 00 00 00 00 00 00 00 00 00 01 00 00 00 00 00 00 00 00 
2660: 00 00 00 00 00 00 00 00 00 00 00 00 00 00 00 00 00 01 00 00 00 00 00 00 00 00 00 00 00 00 00 00 
2680: 00 00 00 01 00 00 00 00 00 00 00 00 00 00 00 00 00 00 00 00 00 00 00 00 00 00 00 00 00 00 00 00 
26a0: 00 00 00 00 00 00 00 00 00 01 00 00 00 00 00 00 00 00 00 00 00 00 00 00 00 00 00 00 00 00 00 00 
26c0: 00 00 00 00 00 00 00 00 00 00 00 00 00 00 00 00 00 00 00 00 00 00 00 00 00 00 00 00 00 00 00 00 
26e0: 01 00 01 00 00 00 00 00 00 00 00 00 00 00 00 00 00 00 00 00 00 00 00 00 00 00 00 00 00 00 00 00 
2700: 00 00 00 00 00 00 00 00 00 00 00 00 00 00 00 00 00 00 00 00 00 00 00 00 00 00 01 00 00 00 00 00 
2720: 00 00 00 00 00 00 00 00 00 00 00 00 00 00 00 01 00 00 00 00 00 00 00 00 00 00 00 00 00 00 00 00 
2740: 00 00 00 00 00 00 00 00 00 00 00 01 00 00 00 00 00 00 00 00 00 00 00 00 00 00 00 00 00 00 00 00 
2760: 00 00 00 00 00 00 00 00 00 00 00 00 00 00 00 00 00 00 00 00 00 00 00 00 00 00 00 00 00 00 00 00 
2780: 00 00 00 00 00 00 00 00 00 00 00 00 00 00 00 00 00 00 00 00 00 00 00 00 00 00 00 00 00 00 00 00 
27a0: 00 00 00 00 00 00 00 00 00 00 00 00 00 00 00 00 01 00 00 00 00 00 00 00 00 00 00 00 00 00 00 00 
27c0: 00 00 00 00 00 00 00 00 00 00 00 00 01 00 00 00 00 00 00 00 00 00 00 00 00 00 00 00 00 00 00 00 
27e0: 00 00 00 00 00 00 00 00 00 00 00 00 00 00 00 00 00 00 00 00 00 00 00 00 00 00 00 00 00 00 00 00 
2800: 00 00 00 00 00 00 00 00 00 00 00 00 00 00 00 00 00 00 01 00 00 00 00 00 00 00 00 00 00 00 00 00 
2820: 00 00 00 00 00 00 00 00 00 00 00 00 00 00 00 00 00 00 00 00 00 00 00 00 00 00 00 00 00 00 00 00 
2840: 00 00 00 00 00 00 00 00 00 00 00 00 00 00 00 00 00 00 00 00 00 00 00 00 00 00 00 00 00 00 00 00 
2860: 00 00 00 00 00 00 00 00 00 00 00 00 00 00 00 00 00 00 00 00 00 00 00 00 00 00 00 00 00 00 00 01 
2880: 00 00 00 00 00 00 00 00 00 00 00 00 00 00 00 00 00 00 00 00 00 00 00 00 01 00 00 00 00 00 00 00 
28a0: 00 00 00 00 00 00 00 00 01 00 00 00 00 00 00 00 00 00 00 00 00 00 00 00 00 00 00 00 00 00 00 01 
28c0: 00 00 00 00 00 00 00 00 00 00 00 00 00 00 00 00 00 00 00 00 00 00 00 00 00 00 00 00 01 00 00 00 
28e0: 00 00 00 00 00 00 00 00 00 00 00 00 00 00 01 00 00 00 00 00 00 00 00 00 00 00 00 00 00 00 00 00 
2900: 00 00 00 00 00 00 00 00 00 00 00 00 00 00 00 00 00 00 00 00 00 00 00 00 00 01 00 00 00 00 00 00 
2920: 00 00 00 00 00 00 00 00 00 00 00 00 00 00 00 00 00 00 00 00 00 00 00 00 00 00 00 00 00 00 00 00 
2940: 00 00 00 00 00 00 00 00 00 00 00 00 00 00 00 00 00 00 00 00 00 00 00 00 00 09 09 09 09 09 09 09 
2960: 09 09 09 09 09 09 09 09 09 09 09 09 09 09 09 09 09 09 09 09 09 09 09 09 09 09 09 09 09 09 09 00 
2980: 09 09 09 09 09 09 09 09 09 09 09 09 09 09 09 09 09 09 09 09 09 09 09 09 09 09 09 09 09 09 09 09 
29a0: 09 09 09 09 09 09 09 09 09 09 09 09 09 09 09 09 09 09 09 09 09 09 09 09 09 09 09 09 09 09 09 09 
29c0: 09 09 09 09 09 09 09 09 09 09 09 09 09 09 09 09                                                 

[character set]
3800: 3c 66 6e 6e 60 62 3c 00 18 3c 66 7e 66 66 66 00 7c 66 66 7c 66 66 7c 00 3c 66 60 60 60 66 3c 00  -         .import binary "..\resources\charset.bin"
3820: 78 6c 66 66 66 6c 78 00 7e 60 60 78 60 60 7e 00 7e 60 60 78 60 60 60 00 3c 66 60 6e 66 66 3c 00 
3840: 66 66 66 7e 66 66 66 00 3c 18 18 18 18 18 3c 00 1e 0c 0c 0c 0c 6c 38 00 66 6c 78 70 78 6c 66 00 
3860: 60 60 60 60 60 60 7e 00 63 77 7f 6b 63 63 63 00 66 76 7e 7e 6e 66 66 00 3c 66 66 66 66 66 3c 00 
3880: 7c 66 66 7c 60 60 60 00 3c 66 66 66 66 3c 0e 00 7c 66 66 7c 78 6c 66 00 3c 66 60 3c 06 66 3c 00 
38a0: 7e 18 18 18 18 18 18 00 66 66 66 66 66 66 3c 00 66 66 66 66 66 3c 18 00 63 63 63 6b 7f 77 63 00 
38c0: 66 66 3c 18 3c 66 66 00 66 66 66 3c 18 18 18 00 7e 06 0c 18 30 60 7e 00 3c 30 30 30 30 30 3c 00 
38e0: 0c 12 30 7c 30 62 fc 00 3c 0c 0c 0c 0c 0c 3c 00 18 18 18 3c 3c 7e 7e c3 00 10 30 7f 7f 30 10 00 
3900: 00 00 00 00 00 00 00 00 18 18 18 18 00 00 18 00 66 66 66 00 00 00 00 00 66 66 ff 66 ff 66 66 00 
3920: 18 3e 60 3c 06 7c 18 00 62 66 0c 18 30 66 46 00 3c 66 3c 38 67 66 3f 00 06 0c 18 00 00 00 00 00 
3940: 0c 18 30 30 30 18 0c 00 30 38 1c 1c 1c 38 30 00 00 66 3c ff 3c 66 00 00 00 18 18 7e 18 18 00 00 
3960: 00 00 00 00 00 18 18 30 00 00 00 7e 00 00 00 00 00 00 00 00 10 00 00 00 00 03 06 0c 18 30 60 00 
3980: 3c 66 6e 76 66 66 3c 00 18 18 38 18 18 18 7e 00 3c 66 06 0c 30 60 7e 00 3c 66 06 1c 06 66 3c 00 
39a0: 06 0e 1e 66 7f 06 06 00 7e 60 7c 06 06 66 3c 00 3c 66 60 7c 66 66 3c 00 7e 66 0c 18 18 18 18 00 
39c0: 3c 66 66 3c 66 66 3c 00 3c 66 66 3e 06 66 3c 00 00 00 18 00 00 18 00 00 00 00 18 00 00 18 18 30 
39e0: 0e 18 30 60 30 18 0e 00 00 00 7e 00 7e 00 00 00 70 18 0c 06 0c 18 70 00 3c 66 06 0c 18 00 18 00 
3a00: 00 00 00 ff ff 00 00 00 08 1c 3e 7f 7f 1c 3e 00 18 18 18 18 18 18 18 18 00 00 00 ff ff 00 00 00 
3a20: 00 00 ff ff 00 00 00 00 00 ff ff 00 00 00 00 00 00 00 00 00 ff ff 00 00 30 30 30 30 30 30 30 30 
3a40: 0c 0c 0c 0c 0c 0c 0c 0c 00 00 00 e0 f0 38 18 18 18 18 1c 0f 07 00 00 00 18 18 38 f0 e0 00 00 00 
3a60: c0 c0 c0 c0 c0 c0 ff ff c0 e0 70 38 1c 0e 07 03 03 07 0e 1c 38 70 e0 c0 ff ff c0 c0 c0 c0 c0 c0 
3a80: ff ff 03 03 03 03 03 03 00 3c 7e 7e 7e 7e 3c 00 00 00 00 00 00 ff ff 00 36 7f 7f 7f 3e 1c 08 00 
3aa0: 60 60 60 60 60 60 60 60 00 00 00 07 0f 1c 18 18 c3 e7 7e 3c 3c 7e e7 c3 00 3c 7e 66 66 7e 3c 00 
3ac0: 18 18 66 66 18 18 3c 00 06 06 06 06 06 06 06 06 08 1c 3e 7f 3e 1c 08 00 18 18 18 ff ff 18 18 18 
3ae0: c0 c0 30 30 c0 c0 30 30 18 18 18 18 18 18 18 18 00 00 03 3e 76 36 36 00 ff 7f 3f 1f 0f 07 03 01 
3b00: 00 00 00 00 00 00 00 00 f0 f0 f0 f0 f0 f0 f0 f0 00 00 00 00 ff ff ff ff ff 00 00 00 00 00 00 00 
3b20: 00 00 00 00 00 00 00 ff c0 c0 c0 c0 c0 c0 c0 c0 cc cc 33 33 cc cc 33 33 03 03 03 03 03 03 03 03 
3b40: 00 00 00 00 cc cc 33 33 ff fe fc f8 f0 e0 c0 80 03 03 03 03 03 03 03 03 18 18 18 1f 1f 18 18 18 
3b60: 00 00 00 00 0f 0f 0f 0f 18 18 18 1f 1f 00 00 00 00 00 00 f8 f8 18 18 18 00 00 00 00 00 00 ff ff 
3b80: 00 00 00 1f 1f 18 18 18 18 18 18 ff ff 00 00 00 00 00 00 ff ff 18 18 18 18 18 18 f8 f8 18 18 18 
3ba0: c0 c0 c0 c0 c0 c0 c0 c0 e0 e0 e0 e0 e0 e0 e0 e0 07 07 07 07 07 07 07 07 ff ff 00 00 00 00 00 00 
3bc0: c0 c0 c0 c0 c0 c0 c0 c0 60 60 60 60 60 60 60 60 30 30 30 30 30 30 30 30 18 18 18 18 18 18 18 18 
3be0: 0c 0c 0c 0c 0c 0c 0c 0c 06 06 06 06 06 06 06 06 03 03 03 03 03 03 03 03 00 00 00 00 00 00 00 00 
3c00: c3 99 91 91 9f 99 c3 ff e7 c3 99 81 99 99 99 ff 83 99 99 83 99 99 83 ff c3 99 9f 9f 9f 99 c3 ff 
3c20: 87 93 99 99 99 93 87 ff 81 9f 9f 87 9f 9f 81 ff 81 9f 9f 87 9f 9f 9f ff c3 99 9f 91 99 99 c3 ff 
3c40: 99 99 99 81 99 99 99 ff c3 e7 e7 e7 e7 e7 c3 ff e1 f3 f3 f3 f3 93 c7 ff 99 93 87 8f 87 93 99 ff 
3c60: 9f 9f 9f 9f 9f 9f 81 ff 9c 88 80 94 9c 9c 9c ff 99 89 81 81 91 99 99 ff c3 99 99 99 99 99 c3 ff 
3c80: 83 99 99 83 9f 9f 9f ff c3 99 99 99 99 c3 f1 ff 83 99 99 83 87 93 99 ff c3 99 9f c3 f9 99 c3 ff 
3ca0: 81 e7 e7 e7 e7 e7 e7 ff 99 99 99 99 99 99 c3 ff 99 99 99 99 99 c3 e7 ff 9c 9c 9c 94 80 88 9c ff 
3cc0: 99 99 c3 e7 c3 99 99 ff 99 99 99 c3 e7 e7 e7 ff 81 f9 f3 e7 cf 9f 81 ff c3 cf cf cf cf cf c3 ff 
3ce0: f3 ed cf 83 cf 9d 03 ff c3 f3 f3 f3 f3 f3 c3 ff ff e7 c3 81 e7 e7 e7 e7 ff ef cf 80 80 cf ef ff 
3d00: ff ff ff ff ff ff ff ff e7 e7 e7 e7 ff ff e7 ff 99 99 99 ff ff ff ff ff 99 99 00 99 00 99 99 ff 
3d20: e7 c1 9f c3 f9 83 e7 ff 9d 99 f3 e7 cf 99 b9 ff c3 99 c3 c7 98 99 c0 ff f9 f3 e7 ff ff ff ff ff 
3d40: f3 e7 cf cf cf e7 f3 ff cf e7 f3 f3 f3 e7 cf ff ff 99 c3 00 c3 99 ff ff ff e7 e7 81 e7 e7 ff ff 
3d60: ff ff ff ff ff e7 e7 cf ff ff ff 81 ff ff ff ff ff ff ff ff ff e7 e7 ff ff fc f9 f3 e7 cf 9f ff 
3d80: c3 99 91 89 99 99 c3 ff e7 e7 c7 e7 e7 e7 81 ff c3 99 f9 f3 cf 9f 81 ff c3 99 f9 e3 f9 99 c3 ff 
3da0: f9 f1 e1 99 80 f9 f9 ff 81 9f 83 f9 f9 99 c3 ff c3 99 9f 83 99 99 c3 ff 81 99 f3 e7 e7 e7 e7 ff 
3dc0: c3 99 99 c3 99 99 c3 ff c3 99 99 c1 f9 99 c3 ff ff ff e7 ff ff e7 ff ff ff ff e7 ff ff e7 e7 cf 
3de0: f1 e7 cf 9f cf e7 f1 ff ff ff 81 ff 81 ff ff ff 8f e7 f3 f9 f3 e7 8f ff c3 99 f9 f3 e7 ff e7 ff 
3e00: ff ff ff 00 00 ff ff ff f7 e3 c1 80 80 e3 c1 ff e7 e7 e7 e7 e7 e7 e7 e7 ff ff ff 00 00 ff ff ff 
3e20: ff ff 00 00 ff ff ff ff ff 00 00 ff ff ff ff ff ff ff ff ff 00 00 ff ff cf cf cf cf cf cf cf cf 
3e40: f3 f3 f3 f3 f3 f3 f3 f3 ff ff ff 1f 0f c7 e7 e7 e7 e7 e3 f0 f8 ff ff ff e7 e7 c7 0f 1f ff ff ff 
3e60: 3f 3f 3f 3f 3f 3f 00 00 3f 1f 8f c7 e3 f1 f8 fc fc f8 f1 e3 c7 8f 1f 3f 00 00 3f 3f 3f 3f 3f 3f 
3e80: 00 00 fc fc fc fc fc fc ff c3 81 81 81 81 c3 ff ff ff ff ff ff 00 00 ff c9 80 80 80 c1 e3 f7 ff 
3ea0: 9f 9f 9f 9f 9f 9f 9f 9f ff ff ff f8 f0 e3 e7 e7 3c 18 81 c3 c3 81 18 3c ff c3 81 99 99 81 c3 ff 
3ec0: e7 e7 99 99 e7 e7 c3 ff f9 f9 f9 f9 f9 f9 f9 f9 f7 e3 c1 80 c1 e3 f7 ff e7 e7 e7 00 00 e7 e7 e7 
3ee0: 3f 3f cf cf 3f 3f cf cf e7 e7 e7 e7 e7 e7 e7 e7 ff ff fc c1 89 c9 c9 ff 00 80 c0 e0 f0 f8 fc fe 
3f00: ff ff ff ff ff ff ff ff 0f 0f 0f 0f 0f 0f 0f 0f ff ff ff ff 00 00 00 00 00 ff ff ff ff ff ff ff 
3f20: ff ff ff ff ff ff ff 00 3f 3f 3f 3f 3f 3f 3f 3f 33 33 cc cc 33 33 cc cc fc fc fc fc fc fc fc fc 
3f40: ff ff ff ff 33 33 cc cc 00 01 03 07 0f 1f 3f 7f fc fc fc fc fc fc fc fc e7 e7 e7 e0 e0 e7 e7 e7 
3f60: ff ff ff ff f0 f0 f0 f0 e7 e7 e7 e0 e0 ff ff ff ff ff ff 07 07 e7 e7 e7 ff ff ff ff ff ff 00 00 
3f80: ff ff ff e0 e0 e7 e7 e7 e7 e7 e7 00 00 ff ff ff ff ff ff 00 00 e7 e7 e7 e7 e7 e7 07 07 e7 e7 e7 
3fa0: 3f 3f 3f 3f 3f 3f 3f 3f 1f 1f 1f 1f 1f 1f 1f 1f f8 f8 f8 f8 f8 f8 f8 f8 00 00 ff ff ff ff ff ff 
3fc0: 00 00 00 ff ff ff ff ff ff ff ff ff ff 00 00 00 fc fc fc fc fc fc 00 00 ff ff ff ff 0f 0f 0f 0f 
3fe0: f0 f0 f0 f0 ff ff ff ff e7 e7 e7 07 07 ff ff ff 0f 0f 0f 0f ff ff ff ff 0f 0f 0f 0f f0 f0 f0 f0 
4000: 3c 66 6e 6e 60 62 3c 00 00 00 3c 06 3e 66 3e 00 00 60 60 7c 66 66 7c 00 00 00 3c 60 60 60 3c 00 
4020: 00 06 06 3e 66 66 3e 00 00 00 3c 66 7e 60 3c 00 00 0e 18 3e 18 18 18 00 00 00 3e 66 66 3e 06 7c 
4040: 00 60 60 7c 66 66 66 00 00 18 00 38 18 18 3c 00 00 06 00 06 06 06 06 3c 00 60 60 6c 78 6c 66 00 
4060: 00 38 18 18 18 18 3c 00 00 00 66 7f 7f 6b 63 00 00 00 7c 66 66 66 66 00 00 00 3c 66 66 66 3c 00 
4080: 00 00 7c 66 66 7c 60 60 00 00 3e 66 66 3e 06 06 00 00 7c 66 60 60 60 00 00 00 3e 60 3c 06 7c 00 
40a0: 00 18 7e 18 18 18 0e 00 00 00 66 66 66 66 3e 00 00 00 66 66 66 3c 18 00 00 00 63 6b 7f 3e 36 00 
40c0: 00 00 66 3c 18 3c 66 00 00 00 66 66 66 3e 0c 78 00 00 7e 0c 18 30 7e 00 3c 30 30 30 30 30 3c 00 
40e0: 0c 12 30 7c 30 62 fc 00 3c 0c 0c 0c 0c 0c 3c 00 00 18 3c 7e 18 18 18 18 00 10 30 7f 7f 30 10 00 
4100: 00 00 00 00 00 00 00 00 18 18 18 18 00 00 18 00 66 66 66 00 00 00 00 00 66 66 ff 66 ff 66 66 00 
4120: 18 3e 60 3c 06 7c 18 00 62 66 0c 18 30 66 46 00 3c 66 3c 38 67 66 3f 00 06 0c 18 00 00 00 00 00 
4140: 0c 18 30 30 30 18 0c 00 30 18 0c 0c 0c 18 30 00 00 66 3c ff 3c 66 00 00 00 18 18 7e 18 18 00 00 
4160: 00 00 00 00 00 18 18 30 00 00 00 7e 00 00 00 00 00 00 00 00 00 18 18 00 00 03 06 0c 18 30 60 00 
4180: 3c 66 6e 76 66 66 3c 00 18 18 38 18 18 18 7e 00 3c 66 06 0c 30 60 7e 00 3c 66 06 1c 06 66 3c 00 
41a0: 06 0e 1e 66 7f 06 06 00 7e 60 7c 06 06 66 3c 00 3c 66 60 7c 66 66 3c 00 7e 66 0c 18 18 18 18 00 
41c0: 3c 66 66 3c 66 66 3c 00 3c 66 66 3e 06 66 3c 00 00 00 18 00 00 18 00 00 00 00 18 00 00 18 18 30 
41e0: 0e 18 30 60 30 18 0e 00 00 00 7e 00 7e 00 00 00 70 18 0c 06 0c 18 70 00 3c 66 06 0c 18 00 18 00 
4200: 00 00 00 ff ff 00 00 00 18 3c 66 7e 66 66 66 00 7c 66 66 7c 66 66 7c 00 3c 66 60 60 60 66 3c 00 
4220: 78 6c 66 66 66 6c 78 00 7e 60 60 78 60 60 7e 00 7e 60 60 78 60 60 60 00 3c 66 60 6e 66 66 3c 00 
4240: 66 66 66 7e 66 66 66 00 3c 18 18 18 18 18 3c 00 1e 0c 0c 0c 0c 6c 38 00 66 6c 78 70 78 6c 66 00 
4260: 60 60 60 60 60 60 7e 00 63 77 7f 6b 63 63 63 00 66 76 7e 7e 6e 66 66 00 3c 66 66 66 66 66 3c 00 
4280: 7c 66 66 7c 60 60 60 00 3c 66 66 66 66 3c 0e 00 7c 66 66 7c 78 6c 66 00 3c 66 60 3c 06 66 3c 00 
42a0: 7e 18 18 18 18 18 18 00 66 66 66 66 66 66 3c 00 66 66 66 66 66 3c 18 00 63 63 63 6b 7f 77 63 00 
42c0: 66 66 3c 18 3c 66 66 00 66 66 66 3c 18 18 18 00 7e 06 0c 18 30 60 7e 00 18 18 18 ff ff 18 18 18 
42e0: c0 c0 30 30 c0 c0 30 30 18 18 18 18 18 18 18 18 33 33 cc cc 33 33 cc cc 33 99 cc 66 33 99 cc 66 
4300: 00 00 00 00 00 00 00 00 f0 f0 f0 f0 f0 f0 f0 f0 00 00 00 00 ff ff ff ff ff 00 00 00 00 00 00 00 
4320: 00 00 00 00 00 00 00 ff c0 c0 c0 c0 c0 c0 c0 c0 cc cc 33 33 cc cc 33 33 03 03 03 03 03 03 03 03 
4340: 00 00 00 00 cc cc 33 33 cc 99 33 66 cc 99 33 66 03 03 03 03 03 03 03 03 18 18 18 1f 1f 18 18 18 
4360: 00 00 00 00 0f 0f 0f 0f 18 18 18 1f 1f 00 00 00 00 00 00 f8 f8 18 18 18 00 00 00 00 00 00 ff ff 
4380: 00 00 00 1f 1f 18 18 18 18 18 18 ff ff 00 00 00 00 00 00 ff ff 18 18 18 18 18 18 f8 f8 18 18 18 
43a0: c0 c0 c0 c0 c0 c0 c0 c0 e0 e0 e0 e0 e0 e0 e0 e0 07 07 07 07 07 07 07 07 ff ff 00 00 00 00 00 00 
43c0: ff ff ff 00 00 00 00 00 00 00 00 00 00 ff ff ff 01 03 06 6c 78 70 60 00 00 00 00 00 f0 f0 f0 f0 
43e0: 0f 0f 0f 0f 00 00 00 00 18 18 18 f8 f8 00 00 00 f0 f0 f0 f0 00 00 00 00 f0 f0 f0 f0 0f 0f 0f 0f 
4400: c3 99 91 91 9f 99 c3 ff ff ff c3 f9 c1 99 c1 ff ff 9f 9f 83 99 99 83 ff ff ff c3 9f 9f 9f c3 ff 
4420: ff f9 f9 c1 99 99 c1 ff ff ff c3 99 81 9f c3 ff ff f1 e7 c1 e7 e7 e7 ff ff ff c1 99 99 c1 f9 83 
4440: ff 9f 9f 83 99 99 99 ff ff e7 ff c7 e7 e7 c3 ff ff f9 ff f9 f9 f9 f9 c3 ff 9f 9f 93 87 93 99 ff 
4460: ff c7 e7 e7 e7 e7 c3 ff ff ff 99 80 80 94 9c ff ff ff 83 99 99 99 99 ff ff ff c3 99 99 99 c3 ff 
4480: ff ff 83 99 99 83 9f 9f ff ff c1 99 99 c1 f9 f9 ff ff 83 99 9f 9f 9f ff ff ff c1 9f c3 f9 83 ff 
44a0: ff e7 81 e7 e7 e7 f1 ff ff ff 99 99 99 99 c1 ff ff ff 99 99 99 c3 e7 ff ff ff 9c 94 80 c1 c9 ff 
44c0: ff ff 99 c3 e7 c3 99 ff ff ff 99 99 99 c1 f3 87 ff ff 81 f3 e7 cf 81 ff c3 cf cf cf cf cf c3 ff 
44e0: f3 ed cf 83 cf 9d 03 ff c3 f3 f3 f3 f3 f3 c3 ff ff e7 c3 81 e7 e7 e7 e7 ff ef cf 80 80 cf ef ff 
4500: ff ff ff ff ff ff ff ff e7 e7 e7 e7 ff ff e7 ff 99 99 99 ff ff ff ff ff 99 99 00 99 00 99 99 ff 
4520: e7 c1 9f c3 f9 83 e7 ff 9d 99 f3 e7 cf 99 b9 ff c3 99 c3 c7 98 99 c0 ff f9 f3 e7 ff ff ff ff ff 
4540: f3 e7 cf cf cf e7 f3 ff cf e7 f3 f3 f3 e7 cf ff ff 99 c3 00 c3 99 ff ff ff e7 e7 81 e7 e7 ff ff 
4560: ff ff ff ff ff e7 e7 cf ff ff ff 81 ff ff ff ff ff ff ff ff ff e7 e7 ff ff fc f9 f3 e7 cf 9f ff 
4580: c3 99 91 89 99 99 c3 ff e7 e7 c7 e7 e7 e7 81 ff c3 99 f9 f3 cf 9f 81 ff c3 99 f9 e3 f9 99 c3 ff 
45a0: f9 f1 e1 99 80 f9 f9 ff 81 9f 83 f9 f9 99 c3 ff c3 99 9f 83 99 99 c3 ff 81 99 f3 e7 e7 e7 e7 ff 
45c0: c3 99 99 c3 99 99 c3 ff c3 99 99 c1 f9 99 c3 ff ff ff e7 ff ff e7 ff ff ff ff e7 ff ff e7 e7 cf 
45e0: f1 e7 cf 9f cf e7 f1 ff ff ff 81 ff 81 ff ff ff 8f e7 f3 f9 f3 e7 8f ff c3 99 f9 f3 e7 ff e7 ff 
4600: ff ff ff 00 00 ff ff ff e7 c3 99 81 99 99 99 ff 83 99 99 83 99 99 83 ff c3 99 9f 9f 9f 99 c3 ff 
4620: 87 93 99 99 99 93 87 ff 81 9f 9f 87 9f 9f 81 ff 81 9f 9f 87 9f 9f 9f ff c3 99 9f 91 99 99 c3 ff 
4640: 99 99 99 81 99 99 99 ff c3 e7 e7 e7 e7 e7 c3 ff e1 f3 f3 f3 f3 93 c7 ff 99 93 87 8f 87 93 99 ff 
4660: 9f 9f 9f 9f 9f 9f 81 ff 9c 88 80 94 9c 9c 9c ff 99 89 81 81 91 99 99 ff c3 99 99 99 99 99 c3 ff 
4680: 83 99 99 83 9f 9f 9f ff c3 99 99 99 99 c3 f1 ff 83 99 99 83 87 93 99 ff c3 99 9f c3 f9 99 c3 ff 
46a0: 81 e7 e7 e7 e7 e7 e7 ff 99 99 99 99 99 99 c3 ff 99 99 99 99 99 c3 e7 ff 9c 9c 9c 94 80 88 9c ff 
46c0: 99 99 c3 e7 c3 99 99 ff 99 99 99 c3 e7 e7 e7 ff 81 f9 f3 e7 cf 9f 81 ff e7 e7 e7 00 00 e7 e7 e7 
46e0: 3f 3f cf cf 3f 3f cf cf e7 e7 e7 e7 e7 e7 e7 e7 cc cc 33 33 cc cc 33 33 cc 66 33 99 cc 66 33 99 
4700: ff ff ff ff ff ff ff ff 0f 0f 0f 0f 0f 0f 0f 0f ff ff ff ff 00 00 00 00 00 ff ff ff ff ff ff ff 
4720: ff ff ff ff ff ff ff 00 3f 3f 3f 3f 3f 3f 3f 3f 33 33 cc cc 33 33 cc cc fc fc fc fc fc fc fc fc 
4740: ff ff ff ff 33 33 cc cc 33 66 cc 99 33 66 cc 99 fc fc fc fc fc fc fc fc e7 e7 e7 e0 e0 e7 e7 e7 
4760: ff ff ff ff f0 f0 f0 f0 e7 e7 e7 e0 e0 ff ff ff ff ff ff 07 07 e7 e7 e7 ff ff ff ff ff ff 00 00 
4780: ff ff ff e0 e0 e7 e7 e7 e7 e7 e7 00 00 ff ff ff ff ff ff 00 00 e7 e7 e7 e7 e7 e7 07 07 e7 e7 e7 
47a0: 3f 3f 3f 3f 3f 3f 3f 3f 1f 1f 1f 1f 1f 1f 1f 1f f8 f8 f8 f8 f8 f8 f8 f8 00 00 ff ff ff ff ff ff 
47c0: 00 00 00 ff ff ff ff ff ff ff ff ff ff 00 00 00 fe fc f9 93 87 8f 9f ff ff ff ff ff 0f 0f 0f 0f 
47e0: f0 f0 f0 f0 ff ff ff ff e7 e7 e7 07 07 ff ff ff 0f 0f 0f 0f ff ff ff ff 0f 0f 0f 0f f0 f0 f0 f0 
